; ModuleID = '15/1851.c'
source_filename = "15/1851.c"
target datalayout = "e-m:e-p270:32:32-p271:32:32-p272:64:64-i64:64-f80:128-n8:16:32:64-S128"
target triple = "x86_64-pc-linux-gnu"

@.str = private unnamed_addr constant [3 x i8] c"%d\00", align 1

; Function Attrs: noinline nounwind uwtable
define dso_local i32 @main() #0 {
  %1 = alloca i32, align 4
  %2 = alloca i32, align 4
  %3 = alloca i32, align 4
  %4 = alloca i32, align 4
  %5 = alloca i32, align 4
  %6 = alloca i32, align 4
  %7 = alloca i32, align 4
  %8 = alloca [100 x i32], align 16
  %9 = alloca i32, align 4
  store i32 0, i32* %1, align 4
  store i32 0, i32* %4, align 4
  %10 = call i32 (i8*, ...) @__isoc99_scanf(i8* getelementptr inbounds ([3 x i8], [3 x i8]* @.str, i64 0, i64 0), i32* %2)
  store i32 0, i32* %9, align 4
  br label %11

11:                                               ; preds = %30, %0
  %12 = load i32, i32* %9, align 4
  %13 = load i32, i32* %2, align 4
  %14 = load i32, i32* %2, align 4
  %15 = mul nsw i32 %13, %14
  %16 = sub nsw i32 %15, 1
  %17 = icmp slt i32 %12, %16
  br i1 %17, label %18, label %33

18:                                               ; preds = %11
  %19 = call i32 (i8*, ...) @__isoc99_scanf(i8* getelementptr inbounds ([3 x i8], [3 x i8]* @.str, i64 0, i64 0), i32* %3)
  %20 = load i32, i32* %3, align 4
  %21 = icmp eq i32 %20, 0
  br i1 %21, label %22, label %29

22:                                               ; preds = %18
  %23 = load i32, i32* %9, align 4
  %24 = load i32, i32* %4, align 4
  %25 = sext i32 %24 to i64
  %26 = getelementptr inbounds [100 x i32], [100 x i32]* %8, i64 0, i64 %25
  store i32 %23, i32* %26, align 4
  %27 = load i32, i32* %4, align 4
  %28 = add nsw i32 %27, 1
  store i32 %28, i32* %4, align 4
  br label %29

29:                                               ; preds = %22, %18
  br label %30

30:                                               ; preds = %29
  %31 = load i32, i32* %9, align 4
  %32 = add nsw i32 %31, 1
  store i32 %32, i32* %9, align 4
  br label %11

33:                                               ; preds = %11
  %34 = load i32, i32* %4, align 4
  %35 = sub nsw i32 %34, 1
  %36 = sext i32 %35 to i64
  %37 = getelementptr inbounds [100 x i32], [100 x i32]* %8, i64 0, i64 %36
  %38 = load i32, i32* %37, align 4
  %39 = add nsw i32 %38, 1
  %40 = load i32, i32* %2, align 4
  %41 = srem i32 %39, %40
  %42 = getelementptr inbounds [100 x i32], [100 x i32]* %8, i64 0, i64 0
  %43 = load i32, i32* %42, align 16
  %44 = add nsw i32 %43, 1
  %45 = load i32, i32* %2, align 4
  %46 = srem i32 %44, %45
  %47 = sub nsw i32 %41, %46
  %48 = add nsw i32 %47, 1
  store i32 %48, i32* %5, align 4
  %49 = load i32, i32* %4, align 4
  %50 = add nsw i32 %49, 2
  %51 = sdiv i32 %50, 2
  %52 = load i32, i32* %5, align 4
  %53 = sub nsw i32 %51, %52
  %54 = add nsw i32 %53, 1
  store i32 %54, i32* %6, align 4
  %55 = load i32, i32* %5, align 4
  %56 = sub nsw i32 %55, 2
  %57 = load i32, i32* %6, align 4
  %58 = sub nsw i32 %57, 2
  %59 = mul nsw i32 %56, %58
  store i32 %59, i32* %7, align 4
  %60 = load i32, i32* %7, align 4
  %61 = call i32 (i8*, ...) @printf(i8* getelementptr inbounds ([3 x i8], [3 x i8]* @.str, i64 0, i64 0), i32 %60)
  ret i32 0
}

declare dso_local i32 @__isoc99_scanf(i8*, ...) #1

declare dso_local i32 @printf(i8*, ...) #1


!llvm.module.flags = !{!0}
!llvm.ident = !{!1}

!0 = !{i32 1, !"wchar_size", i32 4}
!1 = !{!"clang version 10.0.0-4ubuntu1 "}
