; ModuleID = 'source-C-CXX/14/1851.c'
source_filename = "source-C-CXX/14/1851.c"
target datalayout = "e-m:e-p270:32:32-p271:32:32-p272:64:64-i64:64-f80:128-n8:16:32:64-S128"
target triple = "x86_64-pc-linux-gnu"

@.str = private unnamed_addr constant [3 x i8] c"%d\00", align 1

; Function Attrs: nofree nounwind sspstrong uwtable
define dso_local i32 @main() local_unnamed_addr #0 {
  %1 = alloca i32, align 4
  %2 = alloca i32, align 4
  %3 = alloca [100 x i32], align 16
  %4 = bitcast i32* %1 to i8*
  call void @llvm.lifetime.start.p0i8(i64 4, i8* nonnull %4) #3
  %5 = bitcast i32* %2 to i8*
  call void @llvm.lifetime.start.p0i8(i64 4, i8* nonnull %5) #3
  %6 = bitcast [100 x i32]* %3 to i8*
  call void @llvm.lifetime.start.p0i8(i64 400, i8* nonnull %6) #3
  %7 = call i32 (i8*, ...) @__isoc99_scanf(i8* getelementptr inbounds ([3 x i8], [3 x i8]* @.str, i64 0, i64 0), i32* nonnull %1)
  %8 = load i32, i32* %1, align 4, !tbaa !5
  %9 = mul nsw i32 %8, %8
  %10 = icmp ugt i32 %9, 1
  br i1 %10, label %35, label %15

11:                                               ; preds = %45
  %12 = getelementptr inbounds [100 x i32], [100 x i32]* %3, i64 0, i64 0
  %13 = load i32, i32* %12, align 16, !tbaa !5
  %14 = add i32 %13, 1
  br label %15

15:                                               ; preds = %11, %0
  %16 = phi i32 [ undef, %0 ], [ %14, %11 ]
  %17 = phi i32 [ 0, %0 ], [ %46, %11 ]
  %18 = phi i32 [ %8, %0 ], [ %48, %11 ]
  %19 = add nsw i32 %17, -1
  %20 = sext i32 %19 to i64
  %21 = getelementptr inbounds [100 x i32], [100 x i32]* %3, i64 0, i64 %20
  %22 = load i32, i32* %21, align 4, !tbaa !5
  %23 = add nsw i32 %22, 1
  %24 = srem i32 %23, %18
  %25 = srem i32 %16, %18
  %26 = sub nsw i32 %24, %25
  %27 = xor i32 %26, -1
  %28 = add nsw i32 %17, 2
  %29 = sdiv i32 %28, 2
  %30 = add nsw i32 %26, -1
  %31 = add nsw i32 %29, -1
  %32 = add i32 %31, %27
  %33 = mul nsw i32 %30, %32
  %34 = call i32 (i8*, ...) @printf(i8* nonnull dereferenceable(1) getelementptr inbounds ([3 x i8], [3 x i8]* @.str, i64 0, i64 0), i32 %33)
  call void @llvm.lifetime.end.p0i8(i64 400, i8* nonnull %6) #3
  call void @llvm.lifetime.end.p0i8(i64 4, i8* nonnull %5) #3
  call void @llvm.lifetime.end.p0i8(i64 4, i8* nonnull %4) #3
  ret i32 0

35:                                               ; preds = %0, %45
  %36 = phi i32 [ %47, %45 ], [ 0, %0 ]
  %37 = phi i32 [ %46, %45 ], [ 0, %0 ]
  %38 = call i32 (i8*, ...) @__isoc99_scanf(i8* getelementptr inbounds ([3 x i8], [3 x i8]* @.str, i64 0, i64 0), i32* nonnull %2)
  %39 = load i32, i32* %2, align 4, !tbaa !5
  %40 = icmp eq i32 %39, 0
  br i1 %40, label %41, label %45

41:                                               ; preds = %35
  %42 = sext i32 %37 to i64
  %43 = getelementptr inbounds [100 x i32], [100 x i32]* %3, i64 0, i64 %42
  store i32 %36, i32* %43, align 4, !tbaa !5
  %44 = add nsw i32 %37, 1
  br label %45

45:                                               ; preds = %35, %41
  %46 = phi i32 [ %44, %41 ], [ %37, %35 ]
  %47 = add nuw nsw i32 %36, 1
  %48 = load i32, i32* %1, align 4, !tbaa !5
  %49 = mul nsw i32 %48, %48
  %50 = add nsw i32 %49, -1
  %51 = icmp slt i32 %47, %50
  br i1 %51, label %35, label %11, !llvm.loop !9
}

; Function Attrs: argmemonly mustprogress nofree nosync nounwind willreturn
declare void @llvm.lifetime.start.p0i8(i64 immarg, i8* nocapture) #1

; Function Attrs: nofree nounwind
declare noundef i32 @__isoc99_scanf(i8* nocapture noundef readonly, ...) local_unnamed_addr #2

; Function Attrs: argmemonly mustprogress nofree nosync nounwind willreturn
declare void @llvm.lifetime.end.p0i8(i64 immarg, i8* nocapture) #1

; Function Attrs: nofree nounwind
declare noundef i32 @printf(i8* nocapture noundef readonly, ...) local_unnamed_addr #2


!llvm.module.flags = !{!0, !1, !2, !3}
!llvm.ident = !{!4}

!0 = !{i32 1, !"wchar_size", i32 4}
!1 = !{i32 7, !"PIC Level", i32 2}
!2 = !{i32 7, !"PIE Level", i32 2}
!3 = !{i32 7, !"uwtable", i32 1}
!4 = !{!"clang version 13.0.0"}
!5 = !{!6, !6, i64 0}
!6 = !{!"int", !7, i64 0}
!7 = !{!"omnipotent char", !8, i64 0}
!8 = !{!"Simple C/C++ TBAA"}
!9 = distinct !{!9, !10}
!10 = !{!"llvm.loop.mustprogress"}
